target datalayout = "e-m:e-p270:32:32-p271:32:32-p272:64:64-i64:64-i128:128-f80:128-n8:16:32:64-S128"
target triple = "x86_64-pc-linux-gnu"

%"class.std::__cxx11::basic_string" = type { %"struct.std::__cxx11::basic_string<char>::_Alloc_hider", i64, %union.anon }
%"struct.std::__cxx11::basic_string<char>::_Alloc_hider" = type { ptr }
%union.anon = type { i64, [8 x i8] }
%"class.std::basic_string_view" = type { i64, ptr }
%"class.std::allocator" = type { i8 }

@_ZTIN3nix11FormatErrorE = linkonce_odr constant { ptr, ptr, ptr } { ptr getelementptr inbounds (ptr, ptr @_ZTVN10__cxxabiv120__si_class_type_infoE, i64 2), ptr @_ZTSN3nix11FormatErrorE, ptr @_ZTIN3nix5ErrorE }, comdat, align 8
@.str.83 = private unnamed_addr constant [29 x i8] c"bad path '%1%' in derivation\00", align 1

; Function Attrs: mustprogress nounwind uwtable
define linkonce_odr noundef nonnull align 1 dereferenceable(1) ptr @_ZNKSt17basic_string_viewIcSt11char_traitsIcEEixEm(ptr noundef nonnull align 8 dereferenceable(16) %0, i64 noundef %1) #2 comdat align 2 {
  %3 = alloca ptr, align 8
  %4 = alloca i64, align 8
  store ptr %0, ptr %3, align 8
  store i64 %1, ptr %4, align 8
  %5 = load ptr, ptr %3, align 8
  br label %6

6:                                                ; preds = %2
  br label %7

7:                                                ; preds = %6
  br label %8

8:                                                ; preds = %7
  %9 = getelementptr inbounds %"class.std::basic_string_view", ptr %5, i32 0, i32 1
  %10 = load ptr, ptr %9, align 8
  %11 = load i64, ptr %4, align 8
  %12 = getelementptr inbounds i8, ptr %10, i64 %11
  ret ptr %12
}

; Function Attrs: mustprogress nounwind uwtable
define linkonce_odr noundef i64 @_ZNKSt17basic_string_viewIcSt11char_traitsIcEE4sizeEv(ptr noundef nonnull align 8 dereferenceable(16) %0) #2 comdat align 2 {
  %2 = alloca ptr, align 8
  store ptr %0, ptr %2, align 8
  %3 = load ptr, ptr %2, align 8
  %4 = getelementptr inbounds %"class.std::basic_string_view", ptr %3, i32 0, i32 0
  %5 = load i64, ptr %4, align 8
  ret i64 %5
}

; Function Attrs: mustprogress uwtable
define internal void @_ZN3nixL12validatePathESt17basic_string_viewIcSt11char_traitsIcEE(i64 %0, ptr %1) #5 personality ptr @__gxx_personality_v0 {
  %3 = alloca %"class.std::basic_string_view", align 8
  %4 = alloca %"class.std::__cxx11::basic_string", align 8
  %5 = alloca %"class.std::allocator", align 1
  %6 = alloca ptr, align 8
  %7 = alloca i32, align 4
  %8 = alloca i1, align 1
  %9 = getelementptr inbounds { i64, ptr }, ptr %3, i32 0, i32 0
  store i64 %0, ptr %9, align 8
  %10 = getelementptr inbounds { i64, ptr }, ptr %3, i32 0, i32 1
  store ptr %1, ptr %10, align 8
  %11 = call noundef i64 @_ZNKSt17basic_string_viewIcSt11char_traitsIcEE4sizeEv(ptr noundef nonnull align 8 dereferenceable(16) %3) #1
  %12 = icmp eq i64 %11, 0
  br i1 %12, label %18, label %13

13:                                               ; preds = %2
  %14 = call noundef nonnull align 1 dereferenceable(1) ptr @_ZNKSt17basic_string_viewIcSt11char_traitsIcEEixEm(ptr noundef nonnull align 8 dereferenceable(16) %3, i64 noundef 0) #1
  %15 = load i8, ptr %14, align 1
  %16 = sext i8 %15 to i32
  %17 = icmp ne i32 %16, 47
  br i1 %17, label %18, label %34

18:                                               ; preds = %13, %2
  store i1 true, ptr %8, align 1
  %19 = call ptr @__cxa_allocate_exception(i64 376) #1
  call void @_ZNSaIcEC1Ev(ptr noundef nonnull align 1 dereferenceable(1) %5) #1
  invoke void @_ZNSt7__cxx1112basic_stringIcSt11char_traitsIcESaIcEEC2IS3_EEPKcRKS3_(ptr noundef nonnull align 8 dereferenceable(32) %4, ptr noundef @.str.83, ptr noundef nonnull align 1 dereferenceable(1) %5)
          to label %20 unwind label %22

20:                                               ; preds = %18
  invoke void @_ZN3nix11FormatErrorCI2NS_9BaseErrorEIJSt17basic_string_viewIcSt11char_traitsIcEEEEERKNSt7__cxx1112basic_stringIcS3_SaIcEEEDpRKT_(ptr noundef nonnull align 8 dereferenceable(376) %19, ptr noundef nonnull align 8 dereferenceable(32) %4, ptr noundef nonnull align 8 dereferenceable(16) %3)
          to label %21 unwind label %26

21:                                               ; preds = %20
  store i1 false, ptr %8, align 1
  invoke void @__cxa_throw(ptr %19, ptr @_ZTIN3nix11FormatErrorE, ptr @_ZN3nix11FormatErrorD2Ev) #21
          to label %40 unwind label %26

22:                                               ; preds = %18
  %23 = landingpad { ptr, i32 }
          cleanup
  %24 = extractvalue { ptr, i32 } %23, 0
  store ptr %24, ptr %6, align 8
  %25 = extractvalue { ptr, i32 } %23, 1
  store i32 %25, ptr %7, align 4
  br label %30

26:                                               ; preds = %21, %20
  %27 = landingpad { ptr, i32 }
          cleanup
  %28 = extractvalue { ptr, i32 } %27, 0
  store ptr %28, ptr %6, align 8
  %29 = extractvalue { ptr, i32 } %27, 1
  store i32 %29, ptr %7, align 4
  call void @_ZNSt7__cxx1112basic_stringIcSt11char_traitsIcESaIcEED2Ev(ptr noundef nonnull align 8 dereferenceable(32) %4) #1
  br label %30

30:                                               ; preds = %26, %22
  call void @_ZNSaIcED1Ev(ptr noundef nonnull align 1 dereferenceable(1) %5) #1
  %31 = load i1, ptr %8, align 1
  br i1 %31, label %32, label %33

32:                                               ; preds = %30
  call void @__cxa_free_exception(ptr %19) #1
  br label %33

33:                                               ; preds = %32, %30
  br label %35

34:                                               ; preds = %13
  ret void

35:                                               ; preds = %33
  %36 = load ptr, ptr %6, align 8
  %37 = load i32, ptr %7, align 4
  %38 = insertvalue { ptr, i32 } poison, ptr %36, 0
  %39 = insertvalue { ptr, i32 } %38, i32 %37, 1
  resume { ptr, i32 } %39

40:                                               ; preds = %21
  unreachable
}