; Function Attrs: mustprogress uwtable
define internal fastcc void @_ZN3nixL12validatePathESt17basic_string_viewIcSt11char_traitsIcEE(i64 %0, ptr %1) unnamed_addr #4 personality ptr @__gxx_personality_v0 {
  %3 = alloca %"class.std::basic_string_view", align 8
  %4 = alloca %"class.std::__cxx11::basic_string", align 8
  %5 = alloca %"class.std::allocator", align 1
  store i64 %0, ptr %3, align 8
  %6 = getelementptr inbounds i8, ptr %3, i64 8
  store ptr %1, ptr %6, align 8
  %7 = icmp eq i64 %0, 0
  br i1 %7, label %10, label %8

8:                                                ; preds = %2
  %9 = load i8, ptr %1, align 1
  %.not = icmp eq i8 %9, 47
  br i1 %.not, label %18, label %10

10:                                               ; preds = %8, %2
  %11 = tail call ptr @__cxa_allocate_exception(i64 376) #26
  call void @_ZNSaIcEC1Ev(ptr noundef nonnull align 1 dereferenceable(1) %5) #26
  invoke void @_ZNSt7__cxx1112basic_stringIcSt11char_traitsIcESaIcEEC2IS3_EEPKcRKS3_(ptr noundef nonnull align 8 dereferenceable(32) %4, ptr noundef nonnull @.str.83, ptr noundef nonnull align 1 dereferenceable(1) %5)
          to label %12 unwind label %.thread

12:                                               ; preds = %10
  invoke void @_ZN3nix11FormatErrorCI2NS_9BaseErrorEIJSt17basic_string_viewIcSt11char_traitsIcEEEEERKNSt7__cxx1112basic_stringIcS3_SaIcEEEDpRKT_(ptr noundef nonnull align 8 dereferenceable(376) %11, ptr noundef nonnull align 8 dereferenceable(32) %4, ptr noundef nonnull align 8 dereferenceable(16) %3)
          to label %13 unwind label %15

13:                                               ; preds = %12
  invoke void @__cxa_throw(ptr nonnull %11, ptr nonnull @_ZTIN3nix11FormatErrorE, ptr nonnull @_ZN3nix11FormatErrorD2Ev) #27
          to label %20 unwind label %15

.thread:                                          ; preds = %10
  %14 = landingpad { ptr, i32 }
          cleanup
  call void @_ZNSaIcED1Ev(ptr noundef nonnull align 1 dereferenceable(1) %5) #26
  br label %17

15:                                               ; preds = %12, %13
  %.0 = phi i1 [ false, %13 ], [ true, %12 ]
  %16 = landingpad { ptr, i32 }
          cleanup
  call void @_ZNSt7__cxx1112basic_stringIcSt11char_traitsIcESaIcEED2Ev(ptr noundef nonnull align 8 dereferenceable(32) %4) #26
  call void @_ZNSaIcED1Ev(ptr noundef nonnull align 1 dereferenceable(1) %5) #26
  br i1 %.0, label %17, label %19

17:                                               ; preds = %.thread, %15
  %.pn8 = phi { ptr, i32 } [ %14, %.thread ], [ %16, %15 ]
  call void @__cxa_free_exception(ptr %11) #26
  br label %19

18:                                               ; preds = %8
  ret void

19:                                               ; preds = %15, %17
  %.pn7 = phi { ptr, i32 } [ %16, %15 ], [ %.pn8, %17 ]
  resume { ptr, i32 } %.pn7

20:                                               ; preds = %13
  unreachable
}